; Function Attrs: mustprogress uwtable
define internal void @_ZN7rocksdb12_GLOBAL__N_119CountedWritableFile5FlushERKNS_9IOOptionsEPNS_14IODebugContextE(ptr dead_on_unwind noalias writable sret(%"class.rocksdb::IOStatus") align 8 %0, ptr noundef nonnull readonly align 8 captures(none) dereferenceable(64) %1, ptr noundef nonnull align 8 dereferenceable(84) %2, ptr noundef %3) unnamed_addr #0 align 2 personality ptr @__gxx_personality_v0 {
  %5 = getelementptr inbounds nuw i8, ptr %1, i64 40
  %6 = load ptr, ptr %5, align 8, !tbaa !113
  %7 = load ptr, ptr %6, align 8, !tbaa !4
  %8 = getelementptr inbounds nuw i8, ptr %7, i64 64
  %9 = load ptr, ptr %8, align 8
  tail call void %9(ptr dead_on_unwind writable sret(%"class.rocksdb::IOStatus") align 8 %0, ptr noundef nonnull align 8 dereferenceable(33) %6, ptr noundef nonnull align 8 dereferenceable(84) %2, ptr noundef %3)
  %10 = load i8, ptr %0, align 8, !tbaa !64
  %11 = icmp eq i8 %10, 0
  br i1 %11, label %12, label %17

12:                                               ; preds = %4
  %13 = getelementptr inbounds nuw i8, ptr %1, i64 56
  %14 = load ptr, ptr %13, align 8, !tbaa !116
  %15 = getelementptr inbounds nuw i8, ptr %14, i64 64
  %16 = atomicrmw add ptr %15, i32 1 seq_cst, align 4
  br label %17

17:                                               ; preds = %4, %12
  ret void
}